; Function Attrs: mustprogress uwtable
define void @_ZN10open_spiel10algorithms10FSICFRNode8ToStringB5cxx11Ev(ptr dead_on_unwind noalias writable sret(%"class.std::__cxx11::basic_string") align 8 %0, ptr noundef nonnull align 8 dereferenceable(264) %1) local_unnamed_addr #3 align 2 personality ptr @__gxx_personality_v0 {
  %3 = alloca [7 x %"class.absl::debian2::string_view"], align 8
  %4 = alloca %"class.absl::debian2::AlphaNum", align 8
  %5 = alloca %"class.absl::debian2::AlphaNum", align 8
  %6 = alloca %"class.absl::debian2::AlphaNum", align 8
  %7 = getelementptr inbounds nuw i8, ptr %1, i64 4
  %8 = load i32, ptr %7, align 4
  %9 = getelementptr inbounds nuw i8, ptr %4, i64 16
  %10 = call noundef ptr @_ZN4absl7debian216numbers_internal15FastIntToBufferEiPc(i32 noundef %8, ptr noundef nonnull %9)
  %11 = ptrtoint ptr %10 to i64
  %12 = ptrtoint ptr %9 to i64
  %13 = sub i64 %11, %12
  store ptr %9, ptr %4, align 8
  %14 = icmp sgt i64 %13, -1
  br i1 %14, label %_ZN4absl7debian28AlphaNumC2Ei.exit, label %15

15:                                               ; preds = %2
  call void @llvm.trap()
  unreachable

_ZN4absl7debian28AlphaNumC2Ei.exit:               ; preds = %2
  %16 = getelementptr inbounds nuw i8, ptr %4, i64 8
  store i64 %13, ptr %16, align 8
  %17 = getelementptr inbounds nuw i8, ptr %1, i64 56
  %18 = load i32, ptr %17, align 8
  %19 = getelementptr inbounds nuw i8, ptr %5, i64 16
  %20 = call noundef ptr @_ZN4absl7debian216numbers_internal15FastIntToBufferEiPc(i32 noundef %18, ptr noundef nonnull %19)
  %21 = ptrtoint ptr %20 to i64
  %22 = ptrtoint ptr %19 to i64
  %23 = sub i64 %21, %22
  store ptr %19, ptr %5, align 8
  %24 = icmp sgt i64 %23, -1
  br i1 %24, label %_ZN4absl7debian28AlphaNumC2Ei.exit1, label %25

25:                                               ; preds = %_ZN4absl7debian28AlphaNumC2Ei.exit
  call void @llvm.trap()
  unreachable

_ZN4absl7debian28AlphaNumC2Ei.exit1:              ; preds = %_ZN4absl7debian28AlphaNumC2Ei.exit
  %26 = getelementptr inbounds nuw i8, ptr %5, i64 8
  store i64 %23, ptr %26, align 8
  %27 = getelementptr inbounds nuw i8, ptr %1, i64 12
  %28 = load i8, ptr %27, align 4
  %29 = and i8 %28, 1
  %30 = zext nneg i8 %29 to i32
  %31 = getelementptr inbounds nuw i8, ptr %6, i64 16
  %32 = call noundef ptr @_ZN4absl7debian216numbers_internal15FastIntToBufferEiPc(i32 noundef %30, ptr noundef nonnull %31)
  %33 = ptrtoint ptr %32 to i64
  %34 = ptrtoint ptr %31 to i64
  %35 = sub i64 %33, %34
  store ptr %31, ptr %6, align 8
  %36 = icmp sgt i64 %35, -1
  br i1 %36, label %_ZN4absl7debian28AlphaNumC2Ei.exit3, label %37

37:                                               ; preds = %_ZN4absl7debian28AlphaNumC2Ei.exit1
  call void @llvm.trap()
  unreachable

_ZN4absl7debian28AlphaNumC2Ei.exit3:              ; preds = %_ZN4absl7debian28AlphaNumC2Ei.exit1
  %38 = getelementptr inbounds nuw i8, ptr %6, i64 8
  store i64 %35, ptr %38, align 8
  call void @llvm.lifetime.start.p0(i64 112, ptr nonnull %3)
  %.sroa.0.0.copyload.i.i = load ptr, ptr %4, align 8, !noalias !6
  %.sroa.2.0.copyload.i.i = load i64, ptr %16, align 8, !noalias !6
  store ptr %.sroa.0.0.copyload.i.i, ptr %3, align 8, !noalias !6
  %39 = getelementptr inbounds nuw i8, ptr %3, i64 8
  store i64 %.sroa.2.0.copyload.i.i, ptr %39, align 8, !noalias !6
  %40 = getelementptr inbounds nuw i8, ptr %3, i64 16
  store ptr @.str.1, ptr %40, align 8, !noalias !6
  %41 = getelementptr inbounds nuw i8, ptr %3, i64 24
  store i64 2, ptr %41, align 8, !noalias !6
  %42 = getelementptr inbounds nuw i8, ptr %3, i64 32
  %.sroa.0.0.copyload.i12.i = load ptr, ptr %5, align 8, !noalias !6
  %.sroa.2.0.copyload.i14.i = load i64, ptr %26, align 8, !noalias !6
  store ptr %.sroa.0.0.copyload.i12.i, ptr %42, align 8, !noalias !6
  %43 = getelementptr inbounds nuw i8, ptr %3, i64 40
  store i64 %.sroa.2.0.copyload.i14.i, ptr %43, align 8, !noalias !6
  %44 = getelementptr inbounds nuw i8, ptr %3, i64 48
  store ptr @.str.2, ptr %44, align 8, !noalias !6
  %45 = getelementptr inbounds nuw i8, ptr %3, i64 56
  store i64 3, ptr %45, align 8, !noalias !6
  %46 = getelementptr inbounds nuw i8, ptr %3, i64 64
  store ptr %31, ptr %46, align 8, !noalias !6
  %47 = getelementptr inbounds nuw i8, ptr %3, i64 72
  store i64 %35, ptr %47, align 8, !noalias !6
  %48 = getelementptr inbounds nuw i8, ptr %1, i64 24
  %49 = getelementptr inbounds nuw i8, ptr %3, i64 80
  store ptr @.str.3, ptr %49, align 8, !noalias !6
  %50 = getelementptr inbounds nuw i8, ptr %3, i64 88
  store i64 2, ptr %50, align 8, !noalias !6
  %51 = call noundef ptr @_ZNKSt7__cxx1112basic_stringIcSt11char_traitsIcESaIcEE4dataEv(ptr noundef nonnull align 8 dereferenceable(32) %48) #22, !noalias !6
  %52 = call noundef i64 @_ZNKSt7__cxx1112basic_stringIcSt11char_traitsIcESaIcEE4sizeEv(ptr noundef nonnull align 8 dereferenceable(32) %48) #22, !noalias !6
  %53 = icmp sgt i64 %52, -1
  br i1 %53, label %_ZN4absl7debian26StrCatIJA3_cNSt7__cxx1112basic_stringIcSt11char_traitsIcESaIcEEEEEES8_RKNS0_8AlphaNumESB_SB_SB_SB_DpRKT_.exit, label %54

54:                                               ; preds = %_ZN4absl7debian28AlphaNumC2Ei.exit3
  call void @llvm.trap()
  unreachable

_ZN4absl7debian26StrCatIJA3_cNSt7__cxx1112basic_stringIcSt11char_traitsIcESaIcEEEEEES8_RKNS0_8AlphaNumESB_SB_SB_SB_DpRKT_.exit: ; preds = %_ZN4absl7debian28AlphaNumC2Ei.exit3
  %55 = getelementptr inbounds nuw i8, ptr %3, i64 96
  store ptr %51, ptr %55, align 8, !noalias !6
  %56 = getelementptr inbounds nuw i8, ptr %3, i64 104
  store i64 %52, ptr %56, align 8, !noalias !6
  call void @_ZN4absl7debian216strings_internal9CatPiecesB5cxx11ESt16initializer_listINS0_11string_viewEE(ptr dead_on_unwind writable sret(%"class.std::__cxx11::basic_string") align 8 %0, ptr nonnull %3, i64 7)
  call void @llvm.lifetime.end.p0(i64 112, ptr nonnull %3)
  ret void
}